target datalayout = "e-m:e-p270:32:32-p271:32:32-p272:64:64-i64:64-i128:128-f80:128-n8:16:32:64-S128"
target triple = "x86_64-pc-linux-gnu"

%struct.mbedtls_ccm_context = type { [16 x i8], [16 x i8], i64, i64, i64, i64, i32, i32, %struct.mbedtls_cipher_context_t, i32 }
%struct.mbedtls_cipher_context_t = type { ptr, i32, i32, ptr, ptr, [16 x i8], i64, [16 x i8], i64, ptr, ptr }

; Function Attrs: nounwind uwtable
define internal i32 @ccm_calculate_first_block_if_ready(ptr noundef %0) #0 {
  %2 = alloca i32, align 4
  %3 = alloca ptr, align 8
  %4 = alloca i32, align 4
  %5 = alloca i8, align 1
  %6 = alloca i64, align 8
  %7 = alloca i64, align 8
  %8 = alloca i32, align 4
  store ptr %0, ptr %3, align 8, !tbaa !3
  call void @llvm.lifetime.start.p0(i64 4, ptr %4) #8
  store i32 -110, ptr %4, align 4, !tbaa !8
  call void @llvm.lifetime.start.p0(i64 1, ptr %5) #8
  call void @llvm.lifetime.start.p0(i64 8, ptr %6) #8
  call void @llvm.lifetime.start.p0(i64 8, ptr %7) #8
  %9 = load ptr, ptr %3, align 8, !tbaa !3
  %10 = getelementptr inbounds nuw %struct.mbedtls_ccm_context, ptr %9, i32 0, i32 9
  %11 = load i32, ptr %10, align 8, !tbaa !22
  %12 = and i32 %11, 1
  %13 = icmp ne i32 %12, 0
  br i1 %13, label %14, label %20

14:                                               ; preds = %1
  %15 = load ptr, ptr %3, align 8, !tbaa !3
  %16 = getelementptr inbounds nuw %struct.mbedtls_ccm_context, ptr %15, i32 0, i32 9
  %17 = load i32, ptr %16, align 8, !tbaa !22
  %18 = and i32 %17, 2
  %19 = icmp ne i32 %18, 0
  br i1 %19, label %21, label %20

20:                                               ; preds = %14, %1
  store i32 0, ptr %2, align 4
  store i32 1, ptr %8, align 4
  br label %132

21:                                               ; preds = %14
  %22 = load ptr, ptr %3, align 8, !tbaa !3
  %23 = getelementptr inbounds nuw %struct.mbedtls_ccm_context, ptr %22, i32 0, i32 4
  %24 = load i64, ptr %23, align 8, !tbaa !23
  %25 = icmp eq i64 %24, 0
  br i1 %25, label %26, label %41

26:                                               ; preds = %21
  %27 = load ptr, ptr %3, align 8, !tbaa !3
  %28 = getelementptr inbounds nuw %struct.mbedtls_ccm_context, ptr %27, i32 0, i32 7
  %29 = load i32, ptr %28, align 4, !tbaa !16
  %30 = icmp eq i32 %29, 3
  br i1 %30, label %36, label %31

31:                                               ; preds = %26
  %32 = load ptr, ptr %3, align 8, !tbaa !3
  %33 = getelementptr inbounds nuw %struct.mbedtls_ccm_context, ptr %32, i32 0, i32 7
  %34 = load i32, ptr %33, align 4, !tbaa !16
  %35 = icmp eq i32 %34, 2
  br i1 %35, label %36, label %39

36:                                               ; preds = %31, %26
  %37 = load ptr, ptr %3, align 8, !tbaa !3
  %38 = getelementptr inbounds nuw %struct.mbedtls_ccm_context, ptr %37, i32 0, i32 2
  store i64 0, ptr %38, align 8, !tbaa !24
  br label %40

39:                                               ; preds = %31
  store i32 -13, ptr %2, align 4
  store i32 1, ptr %8, align 4
  br label %132

40:                                               ; preds = %36
  br label %41

41:                                               ; preds = %40, %21
  %42 = load ptr, ptr %3, align 8, !tbaa !3
  %43 = getelementptr inbounds nuw %struct.mbedtls_ccm_context, ptr %42, i32 0, i32 3
  %44 = load i64, ptr %43, align 8, !tbaa !25
  %45 = icmp ugt i64 %44, 0
  %46 = zext i1 %45 to i32
  %47 = shl i32 %46, 6
  %48 = load ptr, ptr %3, align 8, !tbaa !3
  %49 = getelementptr inbounds nuw %struct.mbedtls_ccm_context, ptr %48, i32 0, i32 0
  %50 = getelementptr inbounds [16 x i8], ptr %49, i64 0, i64 0
  %51 = load i8, ptr %50, align 8, !tbaa !21
  %52 = zext i8 %51 to i32
  %53 = or i32 %52, %47
  %54 = trunc i32 %53 to i8
  store i8 %54, ptr %50, align 8, !tbaa !21
  %55 = load ptr, ptr %3, align 8, !tbaa !3
  %56 = getelementptr inbounds nuw %struct.mbedtls_ccm_context, ptr %55, i32 0, i32 4
  %57 = load i64, ptr %56, align 8, !tbaa !23
  %58 = sub i64 %57, 2
  %59 = udiv i64 %58, 2
  %60 = shl i64 %59, 3
  %61 = load ptr, ptr %3, align 8, !tbaa !3
  %62 = getelementptr inbounds nuw %struct.mbedtls_ccm_context, ptr %61, i32 0, i32 0
  %63 = getelementptr inbounds [16 x i8], ptr %62, i64 0, i64 0
  %64 = load i8, ptr %63, align 8, !tbaa !21
  %65 = zext i8 %64 to i64
  %66 = or i64 %65, %60
  %67 = trunc i64 %66 to i8
  store i8 %67, ptr %63, align 8, !tbaa !21
  %68 = load ptr, ptr %3, align 8, !tbaa !3
  %69 = getelementptr inbounds nuw %struct.mbedtls_ccm_context, ptr %68, i32 0, i32 6
  %70 = load i32, ptr %69, align 8, !tbaa !20
  %71 = sub i32 %70, 1
  %72 = load ptr, ptr %3, align 8, !tbaa !3
  %73 = getelementptr inbounds nuw %struct.mbedtls_ccm_context, ptr %72, i32 0, i32 0
  %74 = getelementptr inbounds [16 x i8], ptr %73, i64 0, i64 0
  %75 = load i8, ptr %74, align 8, !tbaa !21
  %76 = zext i8 %75 to i32
  %77 = or i32 %76, %71
  %78 = trunc i32 %77 to i8
  store i8 %78, ptr %74, align 8, !tbaa !21
  store i8 0, ptr %5, align 1, !tbaa !21
  %79 = load ptr, ptr %3, align 8, !tbaa !3
  %80 = getelementptr inbounds nuw %struct.mbedtls_ccm_context, ptr %79, i32 0, i32 2
  %81 = load i64, ptr %80, align 8, !tbaa !24
  store i64 %81, ptr %6, align 8, !tbaa !14
  br label %82

82:                                               ; preds = %100, %41
  %83 = load i8, ptr %5, align 1, !tbaa !21
  %84 = zext i8 %83 to i32
  %85 = load ptr, ptr %3, align 8, !tbaa !3
  %86 = getelementptr inbounds nuw %struct.mbedtls_ccm_context, ptr %85, i32 0, i32 6
  %87 = load i32, ptr %86, align 8, !tbaa !20
  %88 = icmp ult i32 %84, %87
  br i1 %88, label %89, label %105

89:                                               ; preds = %82
  %90 = load i64, ptr %6, align 8, !tbaa !14
  %91 = and i64 %90, 255
  %92 = trunc i64 %91 to i8
  %93 = load ptr, ptr %3, align 8, !tbaa !3
  %94 = getelementptr inbounds nuw %struct.mbedtls_ccm_context, ptr %93, i32 0, i32 0
  %95 = load i8, ptr %5, align 1, !tbaa !21
  %96 = zext i8 %95 to i32
  %97 = sub nsw i32 15, %96
  %98 = sext i32 %97 to i64
  %99 = getelementptr inbounds [16 x i8], ptr %94, i64 0, i64 %98
  store i8 %92, ptr %99, align 1, !tbaa !21
  br label %100

100:                                              ; preds = %89
  %101 = load i8, ptr %5, align 1, !tbaa !21
  %102 = add i8 %101, 1
  store i8 %102, ptr %5, align 1, !tbaa !21
  %103 = load i64, ptr %6, align 8, !tbaa !14
  %104 = lshr i64 %103, 8
  store i64 %104, ptr %6, align 8, !tbaa !14
  br label %82, !llvm.loop !26

105:                                              ; preds = %82
  %106 = load i64, ptr %6, align 8, !tbaa !14
  %107 = icmp ugt i64 %106, 0
  br i1 %107, label %108, label %113

108:                                              ; preds = %105
  %109 = load ptr, ptr %3, align 8, !tbaa !3
  %110 = getelementptr inbounds nuw %struct.mbedtls_ccm_context, ptr %109, i32 0, i32 9
  %111 = load i32, ptr %110, align 8, !tbaa !22
  %112 = or i32 %111, 16
  store i32 %112, ptr %110, align 8, !tbaa !22
  store i32 -13, ptr %2, align 4
  store i32 1, ptr %8, align 4
  br label %132

113:                                              ; preds = %105
  %114 = load ptr, ptr %3, align 8, !tbaa !3
  %115 = getelementptr inbounds nuw %struct.mbedtls_ccm_context, ptr %114, i32 0, i32 8
  %116 = load ptr, ptr %3, align 8, !tbaa !3
  %117 = getelementptr inbounds nuw %struct.mbedtls_ccm_context, ptr %116, i32 0, i32 0
  %118 = getelementptr inbounds [16 x i8], ptr %117, i64 0, i64 0
  %119 = load ptr, ptr %3, align 8, !tbaa !3
  %120 = getelementptr inbounds nuw %struct.mbedtls_ccm_context, ptr %119, i32 0, i32 0
  %121 = getelementptr inbounds [16 x i8], ptr %120, i64 0, i64 0
  %122 = call i32 @mbedtls_cipher_update(ptr noundef %115, ptr noundef %118, i64 noundef 16, ptr noundef %121, ptr noundef %7)
  store i32 %122, ptr %4, align 4, !tbaa !8
  %123 = load i32, ptr %4, align 4, !tbaa !8
  %124 = icmp ne i32 %123, 0
  br i1 %124, label %125, label %131

125:                                              ; preds = %113
  %126 = load ptr, ptr %3, align 8, !tbaa !3
  %127 = getelementptr inbounds nuw %struct.mbedtls_ccm_context, ptr %126, i32 0, i32 9
  %128 = load i32, ptr %127, align 8, !tbaa !22
  %129 = or i32 %128, 16
  store i32 %129, ptr %127, align 8, !tbaa !22
  %130 = load i32, ptr %4, align 4, !tbaa !8
  store i32 %130, ptr %2, align 4
  store i32 1, ptr %8, align 4
  br label %132

131:                                              ; preds = %113
  store i32 0, ptr %2, align 4
  store i32 1, ptr %8, align 4
  br label %132

132:                                              ; preds = %131, %125, %108, %39, %20
  call void @llvm.lifetime.end.p0(i64 8, ptr %7) #8
  call void @llvm.lifetime.end.p0(i64 8, ptr %6) #8
  call void @llvm.lifetime.end.p0(i64 1, ptr %5) #8
  call void @llvm.lifetime.end.p0(i64 4, ptr %4) #8
  %133 = load i32, ptr %2, align 4
  ret i32 %133
}

; Function Attrs: nounwind uwtable
define hidden i32 @mbedtls_ccm_starts(ptr noundef %0, i32 noundef %1, ptr noundef %2, i64 noundef %3) #0 {
  %5 = alloca i32, align 4
  %6 = alloca ptr, align 8
  %7 = alloca i32, align 4
  %8 = alloca ptr, align 8
  %9 = alloca i64, align 8
  store ptr %0, ptr %6, align 8, !tbaa !3
  store i32 %1, ptr %7, align 4, !tbaa !8
  store ptr %2, ptr %8, align 8, !tbaa !10
  store i64 %3, ptr %9, align 8, !tbaa !14
  %10 = load i64, ptr %9, align 8, !tbaa !14
  %11 = icmp ult i64 %10, 7
  br i1 %11, label %15, label %12

12:                                               ; preds = %4
  %13 = load i64, ptr %9, align 8, !tbaa !14
  %14 = icmp ugt i64 %13, 13
  br i1 %14, label %15, label %16

15:                                               ; preds = %12, %4
  store i32 -13, ptr %5, align 4
  br label %68

16:                                               ; preds = %12
  %17 = load i32, ptr %7, align 4, !tbaa !8
  %18 = load ptr, ptr %6, align 8, !tbaa !3
  %19 = getelementptr inbounds nuw %struct.mbedtls_ccm_context, ptr %18, i32 0, i32 7
  store i32 %17, ptr %19, align 4, !tbaa !16
  %20 = load i64, ptr %9, align 8, !tbaa !14
  %21 = trunc i64 %20 to i8
  %22 = zext i8 %21 to i32
  %23 = sub nsw i32 15, %22
  %24 = load ptr, ptr %6, align 8, !tbaa !3
  %25 = getelementptr inbounds nuw %struct.mbedtls_ccm_context, ptr %24, i32 0, i32 6
  store i32 %23, ptr %25, align 8, !tbaa !20
  %26 = load ptr, ptr %6, align 8, !tbaa !3
  %27 = getelementptr inbounds nuw %struct.mbedtls_ccm_context, ptr %26, i32 0, i32 1
  %28 = getelementptr inbounds [16 x i8], ptr %27, i64 0, i64 0
  call void @llvm.memset.p0.i64(ptr align 8 %28, i8 0, i64 16, i1 false)
  %29 = load ptr, ptr %6, align 8, !tbaa !3
  %30 = getelementptr inbounds nuw %struct.mbedtls_ccm_context, ptr %29, i32 0, i32 6
  %31 = load i32, ptr %30, align 8, !tbaa !20
  %32 = sub i32 %31, 1
  %33 = trunc i32 %32 to i8
  %34 = load ptr, ptr %6, align 8, !tbaa !3
  %35 = getelementptr inbounds nuw %struct.mbedtls_ccm_context, ptr %34, i32 0, i32 1
  %36 = getelementptr inbounds [16 x i8], ptr %35, i64 0, i64 0
  store i8 %33, ptr %36, align 8, !tbaa !21
  %37 = load ptr, ptr %6, align 8, !tbaa !3
  %38 = getelementptr inbounds nuw %struct.mbedtls_ccm_context, ptr %37, i32 0, i32 1
  %39 = getelementptr inbounds [16 x i8], ptr %38, i64 0, i64 0
  %40 = getelementptr inbounds i8, ptr %39, i64 1
  %41 = load ptr, ptr %8, align 8, !tbaa !10
  %42 = load i64, ptr %9, align 8, !tbaa !14
  call void @llvm.memcpy.p0.p0.i64(ptr align 1 %40, ptr align 1 %41, i64 %42, i1 false)
  %43 = load ptr, ptr %6, align 8, !tbaa !3
  %44 = getelementptr inbounds nuw %struct.mbedtls_ccm_context, ptr %43, i32 0, i32 1
  %45 = getelementptr inbounds [16 x i8], ptr %44, i64 0, i64 0
  %46 = getelementptr inbounds i8, ptr %45, i64 1
  %47 = load i64, ptr %9, align 8, !tbaa !14
  %48 = getelementptr inbounds nuw i8, ptr %46, i64 %47
  %49 = load ptr, ptr %6, align 8, !tbaa !3
  %50 = getelementptr inbounds nuw %struct.mbedtls_ccm_context, ptr %49, i32 0, i32 6
  %51 = load i32, ptr %50, align 8, !tbaa !20
  %52 = zext i32 %51 to i64
  call void @llvm.memset.p0.i64(ptr align 1 %48, i8 0, i64 %52, i1 false)
  %53 = load ptr, ptr %6, align 8, !tbaa !3
  %54 = getelementptr inbounds nuw %struct.mbedtls_ccm_context, ptr %53, i32 0, i32 1
  %55 = getelementptr inbounds [16 x i8], ptr %54, i64 0, i64 15
  store i8 1, ptr %55, align 1, !tbaa !21
  %56 = load ptr, ptr %6, align 8, !tbaa !3
  %57 = getelementptr inbounds nuw %struct.mbedtls_ccm_context, ptr %56, i32 0, i32 0
  %58 = getelementptr inbounds [16 x i8], ptr %57, i64 0, i64 0
  %59 = getelementptr inbounds i8, ptr %58, i64 1
  %60 = load ptr, ptr %8, align 8, !tbaa !10
  %61 = load i64, ptr %9, align 8, !tbaa !14
  call void @llvm.memcpy.p0.p0.i64(ptr align 1 %59, ptr align 1 %60, i64 %61, i1 false)
  %62 = load ptr, ptr %6, align 8, !tbaa !3
  %63 = getelementptr inbounds nuw %struct.mbedtls_ccm_context, ptr %62, i32 0, i32 9
  %64 = load i32, ptr %63, align 8, !tbaa !22
  %65 = or i32 %64, 1
  store i32 %65, ptr %63, align 8, !tbaa !22
  %66 = load ptr, ptr %6, align 8, !tbaa !3
  %67 = call i32 @ccm_calculate_first_block_if_ready(ptr noundef %66)
  store i32 %67, ptr %5, align 4
  br label %68

68:                                               ; preds = %16, %15
  %69 = load i32, ptr %5, align 4
  ret i32 %69
}