; Function Attrs: nounwind uwtable
define hidden i32 @mbedtls_ccm_starts(ptr noundef %0, i32 noundef %1, ptr noundef readonly captures(none) %2, i64 noundef %3) local_unnamed_addr #2 {
  %5 = alloca i64, align 8
  %6 = add i64 %3, -14
  %or.cond = icmp ult i64 %6, -7
  br i1 %or.cond, label %64, label %7

7:                                                ; preds = %4
  %8 = getelementptr inbounds nuw i8, ptr %0, i64 68
  store i32 %1, ptr %8, align 4, !tbaa !3
  %9 = trunc nuw i64 %3 to i32
  %10 = sub nuw nsw i32 15, %9
  %11 = getelementptr inbounds nuw i8, ptr %0, i64 64
  store i32 %10, ptr %11, align 8, !tbaa !13
  %12 = getelementptr inbounds nuw i8, ptr %0, i64 16
  tail call void @llvm.memset.p0.i64(ptr noundef nonnull align 8 dereferenceable(16) %12, i8 0, i64 16, i1 false)
  %13 = trunc nuw i64 %3 to i8
  %14 = sub nuw nsw i8 14, %13
  store i8 %14, ptr %12, align 8, !tbaa !14
  %15 = getelementptr inbounds nuw i8, ptr %0, i64 17
  tail call void @llvm.memcpy.p0.p0.i64(ptr nonnull align 1 %15, ptr align 1 %2, i64 %3, i1 false)
  %16 = getelementptr inbounds nuw i8, ptr %15, i64 %3
  %17 = load i32, ptr %11, align 8, !tbaa !13
  %18 = zext i32 %17 to i64
  tail call void @llvm.memset.p0.i64(ptr nonnull align 1 %16, i8 0, i64 %18, i1 false)
  %19 = getelementptr inbounds nuw i8, ptr %0, i64 31
  store i8 1, ptr %19, align 1, !tbaa !14
  %20 = getelementptr inbounds nuw i8, ptr %0, i64 1
  tail call void @llvm.memcpy.p0.p0.i64(ptr nonnull align 1 %20, ptr align 1 %2, i64 %3, i1 false)
  %21 = getelementptr inbounds nuw i8, ptr %0, i64 168
  %22 = load i32, ptr %21, align 8, !tbaa !15
  %23 = or i32 %22, 1
  store i32 %23, ptr %21, align 8, !tbaa !15
  call void @llvm.lifetime.start.p0(i64 8, ptr nonnull %5) #10
  %24 = and i32 %23, 3
  %or.cond.not.i = icmp eq i32 %24, 3
  br i1 %or.cond.not.i, label %25, label %ccm_calculate_first_block_if_ready.exit

25:                                               ; preds = %7
  %26 = getelementptr inbounds nuw i8, ptr %0, i64 48
  %27 = load i64, ptr %26, align 8, !tbaa !16
  %28 = icmp eq i64 %27, 0
  br i1 %28, label %29, label %._crit_edge39.i

._crit_edge39.i:                                  ; preds = %25
  %.phi.trans.insert.i = getelementptr inbounds nuw i8, ptr %0, i64 32
  %.pre.i = load i64, ptr %.phi.trans.insert.i, align 8, !tbaa !17
  br label %34

29:                                               ; preds = %25
  %30 = load i32, ptr %8, align 4, !tbaa !3
  %31 = and i32 %30, -2
  %switch.i = icmp eq i32 %31, 2
  br i1 %switch.i, label %32, label %ccm_calculate_first_block_if_ready.exit

32:                                               ; preds = %29
  %33 = getelementptr inbounds nuw i8, ptr %0, i64 32
  store i64 0, ptr %33, align 8, !tbaa !17
  br label %34

34:                                               ; preds = %32, %._crit_edge39.i
  %35 = phi i64 [ %.pre.i, %._crit_edge39.i ], [ 0, %32 ]
  %36 = getelementptr inbounds nuw i8, ptr %0, i64 40
  %37 = load i64, ptr %36, align 8, !tbaa !18
  %.not34.i = icmp eq i64 %37, 0
  %38 = select i1 %.not34.i, i8 0, i8 64
  %39 = load i8, ptr %0, align 8, !tbaa !14
  %.tr.i = trunc i64 %27 to i8
  %40 = shl i8 %.tr.i, 2
  %41 = and i8 %40, -8
  %42 = add i8 %41, -8
  %43 = or i8 %39, %42
  %44 = or i8 %43, %38
  %45 = load i32, ptr %11, align 8, !tbaa !13
  %46 = trunc i32 %45 to i8
  %47 = add i8 %46, -1
  %48 = or i8 %44, %47
  store i8 %48, ptr %0, align 8, !tbaa !14
  %.not.i = icmp eq i32 %45, 0
  br i1 %.not.i, label %._crit_edge.i, label %.lr.ph.i

.lr.ph.i:                                         ; preds = %34, %.lr.ph.i
  %49 = phi i32 [ %56, %.lr.ph.i ], [ 0, %34 ]
  %.038.i = phi i64 [ %55, %.lr.ph.i ], [ %35, %34 ]
  %.02837.i = phi i8 [ %54, %.lr.ph.i ], [ 0, %34 ]
  %50 = trunc i64 %.038.i to i8
  %51 = sub nsw i32 15, %49
  %52 = sext i32 %51 to i64
  %53 = getelementptr inbounds [16 x i8], ptr %0, i64 0, i64 %52
  store i8 %50, ptr %53, align 1, !tbaa !14
  %54 = add i8 %.02837.i, 1
  %55 = lshr i64 %.038.i, 8
  %56 = zext i8 %54 to i32
  %57 = load i32, ptr %11, align 8, !tbaa !13
  %58 = icmp ugt i32 %57, %56
  br i1 %58, label %.lr.ph.i, label %._crit_edge.i, !llvm.loop !19

._crit_edge.i:                                    ; preds = %.lr.ph.i, %34
  %.0.lcssa.i = phi i64 [ %35, %34 ], [ %55, %.lr.ph.i ]
  %.not35.i = icmp eq i64 %.0.lcssa.i, 0
  br i1 %.not35.i, label %59, label %.sink.split.i

59:                                               ; preds = %._crit_edge.i
  %60 = getelementptr inbounds nuw i8, ptr %0, i64 72
  %61 = call i32 @mbedtls_cipher_update(ptr noundef nonnull %60, ptr noundef nonnull %0, i64 noundef 16, ptr noundef nonnull %0, ptr noundef nonnull %5) #10
  %.not36.i = icmp eq i32 %61, 0
  br i1 %.not36.i, label %ccm_calculate_first_block_if_ready.exit, label %.sink.split.i

.sink.split.i:                                    ; preds = %59, %._crit_edge.i
  %.029.ph.i = phi i32 [ -13, %._crit_edge.i ], [ %61, %59 ]
  %62 = load i32, ptr %21, align 8, !tbaa !15
  %63 = or i32 %62, 16
  store i32 %63, ptr %21, align 8, !tbaa !15
  br label %ccm_calculate_first_block_if_ready.exit

ccm_calculate_first_block_if_ready.exit:          ; preds = %7, %29, %59, %.sink.split.i
  %.029.i = phi i32 [ 0, %7 ], [ -13, %29 ], [ 0, %59 ], [ %.029.ph.i, %.sink.split.i ]
  call void @llvm.lifetime.end.p0(i64 8, ptr nonnull %5) #10
  br label %64

64:                                               ; preds = %4, %ccm_calculate_first_block_if_ready.exit
  %.0 = phi i32 [ %.029.i, %ccm_calculate_first_block_if_ready.exit ], [ -13, %4 ]
  ret i32 %.0
}